; Function Attrs: nounwind uwtable
define range(i32 0, 2) i32 @Gia_ManObjCheckSat_rec(ptr noundef %0, i32 noundef %1, ptr noundef %2) local_unnamed_addr #1 {
  %4 = ashr i32 %1, 1
  %5 = getelementptr i8, ptr %0, i64 32
  %.val = load ptr, ptr %5, align 8, !tbaa !16
  %6 = sext i32 %4 to i64
  %7 = getelementptr inbounds %struct.Gia_Obj_t_, ptr %.val, i64 %6
  %8 = load i64, ptr %7, align 4
  %9 = and i64 %8, 1073741824
  %.not = icmp eq i64 %9, 0
  br i1 %.not, label %16, label %10

10:                                               ; preds = %3
  %11 = lshr i64 %8, 62
  %12 = trunc nuw nsw i64 %11 to i32
  %13 = xor i32 %1, %12
  %14 = and i32 %13, 1
  %15 = xor i32 %14, 1
  br label %84

16:                                               ; preds = %3
  %17 = and i32 %1, 1
  %18 = zext nneg i32 %17 to i64
  %19 = shl nuw nsw i64 %18, 62
  %20 = and i64 %8, -4611686019501129729
  %21 = or disjoint i64 %20, %19
  %22 = or disjoint i64 %21, 1073741824
  store i64 %22, ptr %7, align 4
  %23 = getelementptr inbounds nuw i8, ptr %2, i64 4
  %24 = load i32, ptr %23, align 4, !tbaa !34
  %25 = load i32, ptr %2, align 8, !tbaa !35
  %26 = icmp eq i32 %24, %25
  br i1 %26, label %27, label %.Vec_IntGrow.exit10_crit_edge.i

.Vec_IntGrow.exit10_crit_edge.i:                  ; preds = %16
  %.phi.trans.insert.i = getelementptr inbounds nuw i8, ptr %2, i64 8
  %.pre.i = load ptr, ptr %.phi.trans.insert.i, align 8, !tbaa !36
  br label %Vec_IntPush.exit

27:                                               ; preds = %16
  %28 = icmp slt i32 %24, 16
  br i1 %28, label %29, label %37

29:                                               ; preds = %27
  %30 = getelementptr inbounds nuw i8, ptr %2, i64 8
  %31 = load ptr, ptr %30, align 8, !tbaa !36
  %.not9.i.i = icmp eq ptr %31, null
  br i1 %.not9.i.i, label %34, label %32

32:                                               ; preds = %29
  %33 = tail call dereferenceable_or_null(64) ptr @realloc(ptr noundef nonnull %31, i64 noundef 64) #24
  br label %Vec_IntGrow.exit.i

34:                                               ; preds = %29
  %35 = tail call noalias dereferenceable_or_null(64) ptr @malloc(i64 noundef 64) #25
  br label %Vec_IntGrow.exit.i

Vec_IntGrow.exit.i:                               ; preds = %34, %32
  %36 = phi ptr [ %33, %32 ], [ %35, %34 ]
  store ptr %36, ptr %30, align 8, !tbaa !36
  store i32 16, ptr %2, align 8, !tbaa !35
  br label %Vec_IntPush.exit

37:                                               ; preds = %27
  %38 = shl nuw nsw i32 %24, 1
  %39 = getelementptr inbounds nuw i8, ptr %2, i64 8
  %40 = load ptr, ptr %39, align 8, !tbaa !36
  %.not9.i9.i = icmp eq ptr %40, null
  %41 = zext nneg i32 %38 to i64
  %42 = shl nuw nsw i64 %41, 2
  br i1 %.not9.i9.i, label %45, label %43

43:                                               ; preds = %37
  %44 = tail call ptr @realloc(ptr noundef nonnull %40, i64 noundef %42) #24
  br label %47

45:                                               ; preds = %37
  %46 = tail call noalias ptr @malloc(i64 noundef %42) #25
  br label %47

47:                                               ; preds = %45, %43
  %48 = phi ptr [ %44, %43 ], [ %46, %45 ]
  store ptr %48, ptr %39, align 8, !tbaa !36
  store i32 %38, ptr %2, align 8, !tbaa !35
  br label %Vec_IntPush.exit

Vec_IntPush.exit:                                 ; preds = %.Vec_IntGrow.exit10_crit_edge.i, %Vec_IntGrow.exit.i, %47
  %49 = phi ptr [ %.pre.i, %.Vec_IntGrow.exit10_crit_edge.i ], [ %48, %47 ], [ %36, %Vec_IntGrow.exit.i ]
  %50 = load i32, ptr %23, align 4, !tbaa !34
  %51 = add nsw i32 %50, 1
  store i32 %51, ptr %23, align 4, !tbaa !34
  %52 = sext i32 %50 to i64
  %53 = getelementptr inbounds i32, ptr %49, i64 %52
  store i32 %4, ptr %53, align 4, !tbaa !37
  %.val29 = load i64, ptr %7, align 4
  %54 = and i64 %.val29, 2147483648
  %.not.i = icmp ne i64 %54, 0
  %55 = and i64 %.val29, 536870911
  %56 = icmp eq i64 %55, 536870911
  %narrow.i.not = or i1 %.not.i, %56
  br i1 %narrow.i.not, label %83, label %57

57:                                               ; preds = %Vec_IntPush.exit
  %58 = and i64 %.val29, 4611686018427387904
  %59 = icmp eq i64 %58, 0
  %60 = trunc i64 %.val29 to i32
  %61 = and i32 %60, 536870911
  %62 = sub nsw i32 %4, %61
  %63 = lshr i32 %60, 29
  %64 = and i32 %63, 1
  %65 = shl nsw i32 %62, 1
  %66 = or disjoint i32 %65, %64
  br i1 %59, label %67, label %80

67:                                               ; preds = %57
  %68 = tail call i32 @Gia_ManObjCheckSat_rec(ptr noundef nonnull %0, i32 noundef %66, ptr noundef nonnull %2)
  %.not27 = icmp eq i32 %68, 0
  br i1 %.not27, label %84, label %69

69:                                               ; preds = %67
  %.val32 = load i64, ptr %7, align 4
  %70 = lshr i64 %.val32, 32
  %71 = trunc nuw i64 %70 to i32
  %72 = and i32 %71, 536870911
  %73 = sub nsw i32 %4, %72
  %74 = lshr i64 %.val32, 61
  %75 = trunc nuw nsw i64 %74 to i32
  %76 = and i32 %75, 1
  %77 = shl nsw i32 %73, 1
  %78 = or disjoint i32 %77, %76
  %79 = tail call i32 @Gia_ManObjCheckSat_rec(ptr noundef nonnull %0, i32 noundef %78, ptr noundef nonnull %2)
  %.not28 = icmp eq i32 %79, 0
  br i1 %.not28, label %84, label %83

80:                                               ; preds = %57
  %81 = xor i32 %66, 1
  %82 = tail call i32 @Gia_ManObjCheckSat_rec(ptr noundef nonnull %0, i32 noundef %81, ptr noundef nonnull %2)
  %.not26 = icmp eq i32 %82, 0
  br i1 %.not26, label %84, label %83

83:                                               ; preds = %69, %80, %Vec_IntPush.exit
  br label %84

84:                                               ; preds = %80, %69, %67, %83, %10
  %.0 = phi i32 [ %15, %10 ], [ 1, %83 ], [ 0, %67 ], [ 0, %69 ], [ 0, %80 ]
  ret i32 %.0
}